; Function Attrs: nounwind uwtable
define range(i32 -1073741824, 1073741824) i32 @Gia_ManCountResub(ptr noundef readonly captures(none) %0, i32 noundef %1, i32 noundef %2) local_unnamed_addr #2 {
  %4 = icmp slt i32 %1, 7
  %5 = add nsw i32 %1, -6
  %6 = shl nuw i32 1, %5
  %7 = select i1 %4, i32 1, i32 %6
  %8 = tail call fastcc ptr @Vec_WrdStartTruthTables(i32 noundef %1)
  %9 = add nsw i32 %1, 2
  %10 = tail call noalias dereferenceable_or_null(16) ptr @malloc(i64 noundef 16) #13
  %11 = add nsw i32 %1, 1
  %or.cond.i = icmp ult i32 %11, 7
  %spec.store.select.i = select i1 %or.cond.i, i32 8, i32 %9
  %12 = getelementptr inbounds nuw i8, ptr %10, i64 4
  store i32 %spec.store.select.i, ptr %10, align 8
  %.not.i = icmp eq i32 %spec.store.select.i, 0
  br i1 %.not.i, label %Vec_PtrPush.exit.thread, label %Vec_PtrPush.exit

Vec_PtrPush.exit.thread:                          ; preds = %3
  %13 = getelementptr inbounds nuw i8, ptr %10, i64 8
  %14 = getelementptr i8, ptr %0, i64 8
  %.val3048 = load ptr, ptr %14, align 8
  %15 = tail call noalias dereferenceable_or_null(128) ptr @malloc(i64 noundef 128) #13
  store ptr %15, ptr %13, align 8
  store i32 16, ptr %10, align 8
  store ptr %.val3048, ptr %15, align 8
  %16 = sext i32 %7 to i64
  %17 = getelementptr inbounds i64, ptr %.val3048, i64 %16
  br label %Vec_PtrPush.exit37

Vec_PtrPush.exit:                                 ; preds = %3
  %18 = sext i32 %spec.store.select.i to i64
  %19 = shl nsw i64 %18, 3
  %20 = tail call noalias ptr @malloc(i64 noundef %19) #13
  %21 = getelementptr inbounds nuw i8, ptr %10, i64 8
  store ptr %20, ptr %21, align 8
  %22 = getelementptr i8, ptr %0, i64 8
  %.val30 = load ptr, ptr %22, align 8
  %23 = icmp eq i32 %spec.store.select.i, 1
  store ptr %.val30, ptr %20, align 8
  %24 = sext i32 %7 to i64
  %25 = getelementptr inbounds i64, ptr %.val30, i64 %24
  br i1 %23, label %Vec_PtrGrow.exit.i36, label %Vec_PtrPush.exit37

Vec_PtrGrow.exit.i36:                             ; preds = %Vec_PtrPush.exit
  %26 = tail call dereferenceable_or_null(128) ptr @realloc(ptr noundef nonnull %20, i64 noundef 128) #15
  store ptr %26, ptr %21, align 8
  store i32 16, ptr %10, align 8
  br label %Vec_PtrPush.exit37

Vec_PtrPush.exit37:                               ; preds = %Vec_PtrPush.exit, %Vec_PtrPush.exit.thread, %Vec_PtrGrow.exit.i36
  %27 = phi ptr [ %25, %Vec_PtrGrow.exit.i36 ], [ %17, %Vec_PtrPush.exit.thread ], [ %25, %Vec_PtrPush.exit ]
  %28 = phi ptr [ %21, %Vec_PtrGrow.exit.i36 ], [ %13, %Vec_PtrPush.exit.thread ], [ %21, %Vec_PtrPush.exit ]
  %29 = phi ptr [ %26, %Vec_PtrGrow.exit.i36 ], [ %15, %Vec_PtrPush.exit.thread ], [ %20, %Vec_PtrPush.exit ]
  store i32 2, ptr %12, align 4
  %30 = getelementptr inbounds nuw i8, ptr %29, i64 8
  store ptr %27, ptr %30, align 8
  %31 = icmp sgt i32 %1, 0
  br i1 %31, label %.lr.ph, label %._crit_edge

.lr.ph:                                           ; preds = %Vec_PtrPush.exit37
  %32 = select i1 %4, i32 0, i32 %5
  %33 = getelementptr i8, ptr %8, i64 8
  br label %34

34:                                               ; preds = %.lr.ph, %Vec_PtrPush.exit44
  %.051 = phi i32 [ 0, %.lr.ph ], [ %65, %Vec_PtrPush.exit44 ]
  %35 = shl i32 %.051, %32
  %.val28 = load ptr, ptr %33, align 8
  %36 = sext i32 %35 to i64
  %37 = getelementptr inbounds i64, ptr %.val28, i64 %36
  %38 = load i32, ptr %12, align 4
  %39 = load i32, ptr %10, align 8
  %40 = icmp eq i32 %38, %39
  br i1 %40, label %41, label %.Vec_PtrGrow.exit11_crit_edge.i38

.Vec_PtrGrow.exit11_crit_edge.i38:                ; preds = %34
  %.pre.i40 = load ptr, ptr %28, align 8
  br label %Vec_PtrPush.exit44

41:                                               ; preds = %34
  %42 = icmp slt i32 %38, 16
  br i1 %42, label %43, label %50

43:                                               ; preds = %41
  %44 = load ptr, ptr %28, align 8
  %.not9.i.i42 = icmp eq ptr %44, null
  br i1 %.not9.i.i42, label %47, label %45

45:                                               ; preds = %43
  %46 = tail call dereferenceable_or_null(128) ptr @realloc(ptr noundef nonnull %44, i64 noundef 128) #15
  br label %Vec_PtrGrow.exit.i43

47:                                               ; preds = %43
  %48 = tail call noalias dereferenceable_or_null(128) ptr @malloc(i64 noundef 128) #13
  br label %Vec_PtrGrow.exit.i43

Vec_PtrGrow.exit.i43:                             ; preds = %47, %45
  %49 = phi ptr [ %46, %45 ], [ %48, %47 ]
  store ptr %49, ptr %28, align 8
  store i32 16, ptr %10, align 8
  br label %Vec_PtrPush.exit44

50:                                               ; preds = %41
  %51 = shl nuw nsw i32 %38, 1
  %52 = load ptr, ptr %28, align 8
  %.not9.i10.i41 = icmp eq ptr %52, null
  %53 = zext nneg i32 %51 to i64
  %54 = shl nuw nsw i64 %53, 3
  br i1 %.not9.i10.i41, label %57, label %55

55:                                               ; preds = %50
  %56 = tail call ptr @realloc(ptr noundef nonnull %52, i64 noundef %54) #15
  br label %59

57:                                               ; preds = %50
  %58 = tail call noalias ptr @malloc(i64 noundef %54) #13
  br label %59

59:                                               ; preds = %57, %55
  %60 = phi ptr [ %56, %55 ], [ %58, %57 ]
  store ptr %60, ptr %28, align 8
  store i32 %51, ptr %10, align 8
  br label %Vec_PtrPush.exit44

Vec_PtrPush.exit44:                               ; preds = %.Vec_PtrGrow.exit11_crit_edge.i38, %Vec_PtrGrow.exit.i43, %59
  %61 = phi ptr [ %.pre.i40, %.Vec_PtrGrow.exit11_crit_edge.i38 ], [ %60, %59 ], [ %49, %Vec_PtrGrow.exit.i43 ]
  %62 = add nsw i32 %38, 1
  store i32 %62, ptr %12, align 4
  %63 = sext i32 %38 to i64
  %64 = getelementptr inbounds ptr, ptr %61, i64 %63
  store ptr %37, ptr %64, align 8
  %65 = add nuw nsw i32 %.051, 1
  %exitcond.not = icmp eq i32 %65, %1
  br i1 %exitcond.not, label %._crit_edge, label %34, !llvm.loop !11

._crit_edge:                                      ; preds = %Vec_PtrPush.exit44, %Vec_PtrPush.exit37
  %66 = tail call ptr @Gia_ManResubOne(ptr noundef nonnull %10, i32 noundef %7, i32 noundef 30, i32 noundef 100, i32 noundef 0, i32 noundef 0, i32 noundef 0, i32 noundef %2, ptr noundef null, i32 noundef 0) #14
  %67 = load ptr, ptr %28, align 8
  %.not.i45 = icmp eq ptr %67, null
  br i1 %.not.i45, label %Vec_PtrFree.exit, label %68

68:                                               ; preds = %._crit_edge
  tail call void @free(ptr noundef nonnull %67) #14
  br label %Vec_PtrFree.exit

Vec_PtrFree.exit:                                 ; preds = %._crit_edge, %68
  tail call void @free(ptr noundef nonnull %10) #14
  %69 = getelementptr inbounds nuw i8, ptr %8, i64 8
  %70 = load ptr, ptr %69, align 8
  %.not.i46 = icmp eq ptr %70, null
  br i1 %.not.i46, label %Vec_WrdFree.exit, label %71

71:                                               ; preds = %Vec_PtrFree.exit
  tail call void @free(ptr noundef nonnull %70) #14
  br label %Vec_WrdFree.exit

Vec_WrdFree.exit:                                 ; preds = %Vec_PtrFree.exit, %71
  tail call void @free(ptr noundef nonnull %8) #14
  %72 = getelementptr i8, ptr %66, i64 4
  %.val26 = load i32, ptr %72, align 4
  %73 = getelementptr inbounds nuw i8, ptr %66, i64 8
  %74 = load ptr, ptr %73, align 8
  %.not.i47 = icmp eq ptr %74, null
  br i1 %.not.i47, label %Vec_IntFree.exit, label %75

75:                                               ; preds = %Vec_WrdFree.exit
  tail call void @free(ptr noundef nonnull %74) #14
  br label %Vec_IntFree.exit

Vec_IntFree.exit:                                 ; preds = %Vec_WrdFree.exit, %75
  %.not = icmp eq i32 %.val26, 0
  %76 = sdiv i32 %.val26, 2
  %77 = select i1 %.not, i32 999, i32 %76
  tail call void @free(ptr noundef nonnull %66) #14
  ret i32 %77
}